; Function Attrs: nounwind sspstrong uwtable
define internal range(i64 0, 21) i64 @ossl_bn_is_one(i64 noundef %0) #0 {
  %2 = tail call ptr @rb_check_typeddata(i64 noundef %0, ptr noundef nonnull @ossl_bn_type) #11
  %.not = icmp eq ptr %2, null
  br i1 %.not, label %3, label %5

3:                                                ; preds = %1
  %4 = load i64, ptr @rb_eRuntimeError, align 8, !tbaa !6
  tail call void (i64, ptr, ...) @ossl_raise(i64 noundef %4, ptr noundef nonnull @.str) #12
  unreachable

5:                                                ; preds = %1
  %6 = tail call i32 @BN_is_one(ptr noundef nonnull %2) #11
  %.not4 = icmp eq i32 %6, 0
  %. = select i1 %.not4, i64 0, i64 20
  ret i64 %.
}